target datalayout = "e-m:e-p270:32:32-p271:32:32-p272:64:64-i64:64-i128:128-f80:128-n8:16:32:64-S128"
target triple = "x86_64-pc-linux-gnu"

%struct.mbedtls_ssl_transform = type { i64, i64, i64, i64, i64, [16 x i8], [16 x i8], %struct.mbedtls_md_context_t, %struct.mbedtls_md_context_t, i32, i32, %struct.mbedtls_cipher_context_t, %struct.mbedtls_cipher_context_t, i8, i8, [32 x i8], [32 x i8], [64 x i8] }
%struct.mbedtls_md_context_t = type { ptr, ptr, ptr }
%struct.mbedtls_cipher_context_t = type { ptr, i32, i32, ptr, ptr, [16 x i8], i64, [16 x i8], i64, ptr, ptr }

; Function Attrs: nounwind uwtable
define hidden void @mbedtls_ssl_transform_free(ptr noundef %0) #0 {
  %2 = alloca ptr, align 8
  store ptr %0, ptr %2, align 8, !tbaa !50
  %3 = load ptr, ptr %2, align 8, !tbaa !50
  %4 = icmp eq ptr %3, null
  br i1 %4, label %5, label %6

5:                                                ; preds = %1
  br label %16

6:                                                ; preds = %1
  %7 = load ptr, ptr %2, align 8, !tbaa !50
  %8 = getelementptr inbounds nuw %struct.mbedtls_ssl_transform, ptr %7, i32 0, i32 11
  call void @mbedtls_cipher_free(ptr noundef %8)
  %9 = load ptr, ptr %2, align 8, !tbaa !50
  %10 = getelementptr inbounds nuw %struct.mbedtls_ssl_transform, ptr %9, i32 0, i32 12
  call void @mbedtls_cipher_free(ptr noundef %10)
  %11 = load ptr, ptr %2, align 8, !tbaa !50
  %12 = getelementptr inbounds nuw %struct.mbedtls_ssl_transform, ptr %11, i32 0, i32 7
  call void @mbedtls_md_free(ptr noundef %12)
  %13 = load ptr, ptr %2, align 8, !tbaa !50
  %14 = getelementptr inbounds nuw %struct.mbedtls_ssl_transform, ptr %13, i32 0, i32 8
  call void @mbedtls_md_free(ptr noundef %14)
  %15 = load ptr, ptr %2, align 8, !tbaa !50
  call void @mbedtls_platform_zeroize(ptr noundef %15, i64 noundef 456)
  br label %16

16:                                               ; preds = %6, %5
  ret void
}