; Function Attrs: nounwind uwtable
define hidden void @mbedtls_ssl_transform_free(ptr noundef %0) local_unnamed_addr #0 {
  %2 = icmp eq ptr %0, null
  br i1 %2, label %8, label %3

3:                                                ; preds = %1
  %4 = getelementptr inbounds nuw i8, ptr %0, i64 128
  tail call void @mbedtls_cipher_free(ptr noundef nonnull %4) #19
  %5 = getelementptr inbounds nuw i8, ptr %0, i64 224
  tail call void @mbedtls_cipher_free(ptr noundef nonnull %5) #19
  %6 = getelementptr inbounds nuw i8, ptr %0, i64 72
  tail call void @mbedtls_md_free(ptr noundef nonnull %6) #19
  %7 = getelementptr inbounds nuw i8, ptr %0, i64 96
  tail call void @mbedtls_md_free(ptr noundef nonnull %7) #19
  tail call void @mbedtls_platform_zeroize(ptr noundef nonnull %0, i64 noundef 456) #19
  br label %8

8:                                                ; preds = %1, %3
  ret void
}